; Function Attrs: mustprogress nounwind uwtable
define void @_ZN5boost11this_thread20restore_interruptionC2ERNS0_20disable_interruptionE(ptr nocapture nonnull readnone align 1 %0, ptr nocapture noundef nonnull readonly align 1 dereferenceable(1) %1) unnamed_addr #5 align 2 personality ptr @__gxx_personality_v0 {
  %3 = load i8, ptr %1, align 1, !tbaa !155, !range !51, !noundef !52
  %4 = trunc nuw i8 %3 to i1
  br i1 %4, label %5, label %12

5:                                                ; preds = %2
  %6 = tail call noundef zeroext i1 @_ZN5boost13thread_detail17enter_once_regionERNS_9once_flagE(ptr noundef nonnull align 4 dereferenceable(4) @_ZN5boost6detail12_GLOBAL__N_128current_thread_tls_init_flagE) #32
  br i1 %6, label %_ZN5boost6detail6invokeIPFvvEJEEEDTclclsr5boostE7forwardIT_Efp_Espclsr5boostE7forwardIT0_Efp0_EEEOS4_DpOS5_.exit.i.i, label %8

_ZN5boost6detail6invokeIPFvvEJEEEDTclclsr5boostE7forwardIT_Efp_Espclsr5boostE7forwardIT0_Efp0_EEEOS4_DpOS5_.exit.i.i: ; preds = %5
  %7 = tail call i32 @pthread_key_create(ptr noundef nonnull @_ZN5boost6detail12_GLOBAL__N_122current_thread_tls_keyE, ptr noundef nonnull @_ZN5boost6detail12_GLOBAL__N_114tls_destructorEPv) #32
  tail call void @_ZN5boost13thread_detail18commit_once_regionERNS_9once_flagE(ptr noundef nonnull align 4 dereferenceable(4) @_ZN5boost6detail12_GLOBAL__N_128current_thread_tls_init_flagE) #32
  br label %8

8:                                                ; preds = %_ZN5boost6detail6invokeIPFvvEJEEEDTclclsr5boostE7forwardIT_Efp_Espclsr5boostE7forwardIT0_Efp0_EEEOS4_DpOS5_.exit.i.i, %5
  %9 = load i32, ptr @_ZN5boost6detail12_GLOBAL__N_122current_thread_tls_keyE, align 4, !tbaa !54
  %10 = tail call noundef ptr @pthread_getspecific(i32 noundef %9) #32
  %11 = getelementptr inbounds nuw i8, ptr %10, i64 304
  store i8 1, ptr %11, align 8, !tbaa !56
  br label %12

12:                                               ; preds = %8, %2
  ret void
}